target datalayout = "e-m:e-p270:32:32-p271:32:32-p272:64:64-i64:64-i128:128-f80:128-n8:16:32:64-S128"
target triple = "x86_64-unknown-linux-gnu"

; Function Attrs: mustprogress uwtable
define internal noundef i64 @_ZNK8facebook5velox3row12_GLOBAL__N_126UnsafeRowDataBatchIterator4sizeEm(ptr noundef nonnull align 8 dereferenceable(40) %this, i64 noundef %idx) unnamed_addr #1 align 2 {
entry:
  %this.addr = alloca ptr, align 8
  %idx.addr = alloca i64, align 8
  store ptr %this, ptr %this.addr, align 8
  store i64 %idx, ptr %idx.addr, align 8
  %this1 = load ptr, ptr %this.addr, align 8
  %0 = load i64, ptr %idx.addr, align 8
  %vtable = load ptr, ptr %this1, align 8
  %vfn = getelementptr inbounds ptr, ptr %vtable, i64 2
  %1 = load ptr, ptr %vfn, align 8
  %call = call noundef zeroext i1 %1(ptr noundef nonnull align 8 dereferenceable(40) %this1, i64 noundef %0)
  %cond = select i1 %call, i32 0, i32 1
  %conv = sext i32 %cond to i64
  ret i64 %conv
}